; Function Attrs: nounwind uwtable
define dso_local zeroext i1 @query_or_expression_tree_walker_impl(ptr noundef %0, ptr noundef readonly captures(none) %1, ptr noundef %2, i32 noundef %3) local_unnamed_addr #0 {
  %.not = icmp eq ptr %0, null
  br i1 %.not, label %10, label %5

5:                                                ; preds = %4
  %6 = load i32, ptr %0, align 4
  %7 = icmp eq i32 %6, 67
  br i1 %7, label %8, label %10

8:                                                ; preds = %5
  %9 = tail call zeroext i1 @query_tree_walker_impl(ptr noundef nonnull %0, ptr noundef %1, ptr noundef %2, i32 noundef %3)
  br label %12

10:                                               ; preds = %5, %4
  %11 = tail call zeroext i1 %1(ptr noundef %0, ptr noundef %2) #13
  br label %12

12:                                               ; preds = %10, %8
  %.0 = phi i1 [ %9, %8 ], [ %11, %10 ]
  ret i1 %.0
}